target datalayout = "e-m:e-p270:32:32-p271:32:32-p272:64:64-i64:64-i128:128-f80:128-n8:16:32:64-S128"
target triple = "x86_64-pc-linux-gnu"

@.str.5 = private unnamed_addr constant [22 x i8] c"Verification failed.\0A\00", align 1

; Function Attrs: nounwind uwtable
define void @Dau_DsdTest3() #0 {
  %1 = alloca i64, align 8
  %2 = alloca ptr, align 8
  %3 = alloca i64, align 8
  call void @llvm.lifetime.start.p0(i64 8, ptr %1) #9
  store i64 -6991934243167716849, ptr %1, align 8, !tbaa !33
  call void @llvm.lifetime.start.p0(i64 8, ptr %2) #9
  %4 = load i64, ptr %1, align 8, !tbaa !33
  %5 = call ptr @Dau_DsdPerform(i64 noundef %4)
  store ptr %5, ptr %2, align 8, !tbaa !3
  call void @llvm.lifetime.start.p0(i64 8, ptr %3) #9
  %6 = load ptr, ptr %2, align 8, !tbaa !3
  %7 = call i64 @Dau_Dsd6ToTruth(ptr noundef %6)
  store i64 %7, ptr %3, align 8, !tbaa !33
  %8 = load i64, ptr %1, align 8, !tbaa !33
  %9 = load i64, ptr %3, align 8, !tbaa !33
  %10 = icmp ne i64 %8, %9
  br i1 %10, label %11, label %13

11:                                               ; preds = %0
  %12 = call i32 (ptr, ...) @printf(ptr noundef @.str.5)
  br label %13

13:                                               ; preds = %11, %0
  call void @llvm.lifetime.end.p0(i64 8, ptr %3) #9
  call void @llvm.lifetime.end.p0(i64 8, ptr %2) #9
  call void @llvm.lifetime.end.p0(i64 8, ptr %1) #9
  ret void
}