; Function Attrs: nounwind uwtable
define void @Dau_DsdTest3() local_unnamed_addr #3 {
  %1 = tail call ptr @Dau_DsdPerform(i64 noundef -6991934243167716849)
  %2 = tail call i64 @Dau_Dsd6ToTruth(ptr noundef nonnull @Dau_DsdPerform.pBuffer)
  %.not = icmp eq i64 %2, -6991934243167716849
  br i1 %.not, label %4, label %3

3:                                                ; preds = %0
  %puts = tail call i32 @puts(ptr nonnull dereferenceable(1) @str.1)
  br label %4

4:                                                ; preds = %3, %0
  ret void
}